; Function Attrs: nounwind sspstrong uwtable
define dso_local void @fw_cfg_reset_order_override(ptr noundef captures(none) %0) local_unnamed_addr #2 {
  %2 = getelementptr inbounds nuw i8, ptr %0, i64 880
  %3 = load i32, ptr %2, align 16
  %.not = icmp eq i32 %3, 0
  br i1 %.not, label %4, label %5

4:                                                ; preds = %1
  tail call void @__assert_fail(ptr noundef nonnull @.str.2, ptr noundef nonnull @.str.1, i32 noundef 828, ptr noundef nonnull @__PRETTY_FUNCTION__.fw_cfg_reset_order_override) #19
  unreachable

5:                                                ; preds = %1
  store i32 0, ptr %2, align 16
  ret void
}